target datalayout = "e-m:e-p270:32:32-p271:32:32-p272:64:64-i64:64-i128:128-f80:128-n8:16:32:64-S128"
target triple = "x86_64-pc-linux-gnu"

%struct.H5FD_core_fapl_t = type { i64, i8, i8, i64 }
%struct.H5FD_core_t = type { %struct.H5FD_t, ptr, ptr, i64, i64, i64, i8, i8, i64, i8, i32, i64, i64, i8, %struct.H5FD_file_image_callbacks_t, ptr }
%struct.H5FD_t = type { i64, ptr, i64, i32, i64, i64, i64, i64, i64, i8 }
%struct.H5FD_file_image_callbacks_t = type { ptr, ptr, ptr, ptr, ptr, ptr, ptr }

@H5FD_init_g = external global i8, align 1
@H5_libterm_g = external global i8, align 1
@.str.1 = private unnamed_addr constant [102 x i8] c"generated/home/dtcxzyw/WorkSpace/Projects/compilers/llvm-opt-benchmark/bench/hdf5/hdf5/src/H5FDcore.c\00", align 1
@__func__.H5FD__core_fapl_get = private unnamed_addr constant [20 x i8] c"H5FD__core_fapl_get\00", align 1
@H5E_RESOURCE_g = external global i64, align 8
@H5E_NOSPACE_g = external global i64, align 8
@.str.14 = private unnamed_addr constant [25 x i8] c"memory allocation failed\00", align 1

; Function Attrs: nounwind uwtable
define internal ptr @H5FD__core_fapl_get(ptr noundef %0) #0 {
  %2 = alloca ptr, align 8
  %3 = alloca ptr, align 8
  %4 = alloca ptr, align 8
  %5 = alloca ptr, align 8
  %6 = alloca i8, align 1
  store ptr %0, ptr %2, align 8, !tbaa !29
  call void @llvm.lifetime.start.p0(i64 8, ptr %3) #12
  %7 = load ptr, ptr %2, align 8, !tbaa !29
  store ptr %7, ptr %3, align 8, !tbaa !31
  call void @llvm.lifetime.start.p0(i64 8, ptr %4) #12
  call void @llvm.lifetime.start.p0(i64 8, ptr %5) #12
  store ptr null, ptr %5, align 8, !tbaa !33
  call void @llvm.lifetime.start.p0(i64 1, ptr %6) #12
  store i8 0, ptr %6, align 1, !tbaa !7
  %8 = load i8, ptr @H5FD_init_g, align 1, !tbaa !7, !range !9, !noundef !10
  %9 = trunc i8 %8 to i1
  br i1 %9, label %14, label %10

10:                                               ; preds = %1
  %11 = load i8, ptr @H5_libterm_g, align 1, !tbaa !7, !range !9, !noundef !10
  %12 = trunc i8 %11 to i1
  %13 = xor i1 %12, true
  br label %14

14:                                               ; preds = %10, %1
  %15 = phi i1 [ true, %1 ], [ %13, %10 ]
  %16 = xor i1 %15, true
  %17 = xor i1 %16, true
  %18 = zext i1 %17 to i32
  %19 = sext i32 %18 to i64
  %20 = call i64 @llvm.expect.i64(i64 %19, i64 1)
  %21 = icmp ne i64 %20, 0
  br i1 %21, label %22, label %71

22:                                               ; preds = %14
  %23 = call noalias ptr @calloc(i64 noundef 1, i64 noundef 24) #14
  store ptr %23, ptr %4, align 8, !tbaa !16
  %24 = icmp eq ptr null, %23
  br i1 %24, label %25, label %44

25:                                               ; preds = %22
  br label %26

26:                                               ; preds = %25
  br label %27

27:                                               ; preds = %26
  br label %28

28:                                               ; preds = %27
  %29 = load i64, ptr @H5E_RESOURCE_g, align 8, !tbaa !11
  %30 = load i64, ptr @H5E_NOSPACE_g, align 8, !tbaa !11
  %31 = call i32 (ptr, ptr, i32, i64, i64, ptr, ...) @H5E_printf_stack(ptr noundef @.str.1, ptr noundef @__func__.H5FD__core_fapl_get, i32 noundef 663, i64 noundef %29, i64 noundef %30, ptr noundef @.str.14)
  br label %32

32:                                               ; preds = %28
  br label %33

33:                                               ; preds = %32
  store i8 1, ptr %6, align 1, !tbaa !7
  %34 = load i8, ptr %6, align 1, !tbaa !7, !range !9, !noundef !10
  %35 = trunc i8 %34 to i1
  %36 = zext i1 %35 to i8
  store i8 %36, ptr %6, align 1, !tbaa !7
  br label %37

37:                                               ; preds = %33
  br label %38

38:                                               ; preds = %37
  br label %39

39:                                               ; preds = %38
  store ptr null, ptr %5, align 8, !tbaa !33
  br label %70

40:                                               ; No predecessors!
  br label %41

41:                                               ; preds = %40
  br label %42

42:                                               ; preds = %41
  br label %43

43:                                               ; preds = %42
  br label %44

44:                                               ; preds = %43, %22
  %45 = load ptr, ptr %3, align 8, !tbaa !31
  %46 = getelementptr inbounds nuw %struct.H5FD_core_t, ptr %45, i32 0, i32 5
  %47 = load i64, ptr %46, align 8, !tbaa !34
  %48 = load ptr, ptr %4, align 8, !tbaa !16
  %49 = getelementptr inbounds nuw %struct.H5FD_core_fapl_t, ptr %48, i32 0, i32 0
  store i64 %47, ptr %49, align 8, !tbaa !18
  %50 = load ptr, ptr %3, align 8, !tbaa !31
  %51 = getelementptr inbounds nuw %struct.H5FD_core_t, ptr %50, i32 0, i32 10
  %52 = load i32, ptr %51, align 4, !tbaa !40
  %53 = icmp sge i32 %52, 0
  %54 = load ptr, ptr %4, align 8, !tbaa !16
  %55 = getelementptr inbounds nuw %struct.H5FD_core_fapl_t, ptr %54, i32 0, i32 1
  %56 = zext i1 %53 to i8
  store i8 %56, ptr %55, align 8, !tbaa !20
  %57 = load ptr, ptr %3, align 8, !tbaa !31
  %58 = getelementptr inbounds nuw %struct.H5FD_core_t, ptr %57, i32 0, i32 7
  %59 = load i8, ptr %58, align 1, !tbaa !41, !range !9, !noundef !10
  %60 = trunc i8 %59 to i1
  %61 = load ptr, ptr %4, align 8, !tbaa !16
  %62 = getelementptr inbounds nuw %struct.H5FD_core_fapl_t, ptr %61, i32 0, i32 2
  %63 = zext i1 %60 to i8
  store i8 %63, ptr %62, align 1, !tbaa !21
  %64 = load ptr, ptr %3, align 8, !tbaa !31
  %65 = getelementptr inbounds nuw %struct.H5FD_core_t, ptr %64, i32 0, i32 8
  %66 = load i64, ptr %65, align 8, !tbaa !42
  %67 = load ptr, ptr %4, align 8, !tbaa !16
  %68 = getelementptr inbounds nuw %struct.H5FD_core_fapl_t, ptr %67, i32 0, i32 3
  store i64 %66, ptr %68, align 8, !tbaa !22
  %69 = load ptr, ptr %4, align 8, !tbaa !16
  store ptr %69, ptr %5, align 8, !tbaa !33
  br label %70

70:                                               ; preds = %44, %39
  br label %71

71:                                               ; preds = %70, %14
  %72 = load ptr, ptr %5, align 8, !tbaa !33
  call void @llvm.lifetime.end.p0(i64 1, ptr %6) #12
  call void @llvm.lifetime.end.p0(i64 8, ptr %5) #12
  call void @llvm.lifetime.end.p0(i64 8, ptr %4) #12
  call void @llvm.lifetime.end.p0(i64 8, ptr %3) #12
  ret ptr %72
}