; Function Attrs: nounwind uwtable
define internal noalias noundef ptr @H5FD__core_fapl_get(ptr noundef readonly captures(none) %0) #0 {
  %2 = load i8, ptr @H5FD_init_g, align 1, !tbaa !3, !range !7, !noundef !8
  %3 = trunc nuw i8 %2 to i1
  %4 = load i8, ptr @H5_libterm_g, align 1, !range !7
  %5 = trunc nuw i8 %4 to i1
  %6 = xor i1 %5, true
  %7 = select i1 %3, i1 true, i1 %6
  br i1 %7, label %8, label %29, !prof !9

8:                                                ; preds = %1
  %9 = tail call noalias dereferenceable_or_null(24) ptr @calloc(i64 noundef 1, i64 noundef 24) #20
  %10 = icmp eq ptr %9, null
  br i1 %10, label %11, label %15

11:                                               ; preds = %8
  %12 = load i64, ptr @H5E_RESOURCE_g, align 8, !tbaa !10
  %13 = load i64, ptr @H5E_NOSPACE_g, align 8, !tbaa !10
  %14 = tail call i32 (ptr, ptr, i32, i64, i64, ptr, ...) @H5E_printf_stack(ptr noundef nonnull @.str.1, ptr noundef nonnull @__func__.H5FD__core_fapl_get, i32 noundef 663, i64 noundef %12, i64 noundef %13, ptr noundef nonnull @.str.14) #18
  br label %29

15:                                               ; preds = %8
  %16 = getelementptr inbounds nuw i8, ptr %0, i64 112
  %17 = load i64, ptr %16, align 8, !tbaa !21
  store i64 %17, ptr %9, align 8, !tbaa !16
  %18 = getelementptr inbounds nuw i8, ptr %0, i64 140
  %19 = load i32, ptr %18, align 4, !tbaa !30
  %20 = icmp sgt i32 %19, -1
  %21 = getelementptr inbounds nuw i8, ptr %9, i64 8
  %22 = zext i1 %20 to i8
  store i8 %22, ptr %21, align 8, !tbaa !18
  %23 = getelementptr inbounds nuw i8, ptr %0, i64 121
  %24 = load i8, ptr %23, align 1, !tbaa !31, !range !7, !noundef !8
  %25 = getelementptr inbounds nuw i8, ptr %9, i64 9
  store i8 %24, ptr %25, align 1, !tbaa !19
  %26 = getelementptr inbounds nuw i8, ptr %0, i64 128
  %27 = load i64, ptr %26, align 8, !tbaa !32
  %28 = getelementptr inbounds nuw i8, ptr %9, i64 16
  store i64 %27, ptr %28, align 8, !tbaa !20
  br label %29

29:                                               ; preds = %11, %15, %1
  %.0 = phi ptr [ null, %11 ], [ %9, %15 ], [ null, %1 ]
  ret ptr %.0
}